; Function Attrs: mustprogress uwtable
define noundef ptr @_ZNK7Imf_3_221DeepScanLineInputFile8fileNameEv(ptr nocapture noundef nonnull readonly align 8 dereferenceable(16) %this) local_unnamed_addr #3 align 2 {
entry:
  %_data = getelementptr inbounds i8, ptr %this, i64 8
  %0 = load ptr, ptr %_data, align 8
  %_streamData = getelementptr inbounds i8, ptr %0, i64 504
  %1 = load ptr, ptr %_streamData, align 8
  %is = getelementptr inbounds i8, ptr %1, i64 40
  %2 = load ptr, ptr %is, align 8
  %call = tail call noundef ptr @_ZNK7Imf_3_27IStream8fileNameEv(ptr noundef nonnull align 8 dereferenceable(40) %2)
  ret ptr %call
}